; Function Attrs: nounwind uwtable
define dso_local ptr @make_empty_cache_entry(ptr noundef captures(none) %0, i64 noundef %1) local_unnamed_addr #0 {
  %3 = getelementptr inbounds nuw i8, ptr %0, i64 40
  %4 = load ptr, ptr %3, align 8, !tbaa !27
  %.not.i = icmp eq ptr %4, null
  br i1 %.not.i, label %8, label %5

5:                                                ; preds = %2
  %6 = getelementptr inbounds nuw i8, ptr %4, i64 40
  %7 = load ptr, ptr %6, align 8, !tbaa !28
  %.not10.i = icmp eq ptr %7, null
  br i1 %.not10.i, label %8, label %9

8:                                                ; preds = %5, %2
  br label %9

9:                                                ; preds = %8, %5
  %.pn.i = phi ptr [ %0, %8 ], [ %7, %5 ]
  %.0.i = getelementptr inbounds nuw i8, ptr %.pn.i, i64 224
  %10 = load ptr, ptr %.0.i, align 8, !tbaa !31
  %.not11.i = icmp eq ptr %10, null
  br i1 %.not11.i, label %11, label %find_mem_pool.exit

11:                                               ; preds = %9
  %12 = tail call ptr @xmalloc(i64 noundef 24) #30
  store ptr %12, ptr %.0.i, align 8, !tbaa !31
  tail call void @mem_pool_init(ptr noundef %12, i64 noundef 0) #30
  %.pre.i = load ptr, ptr %.0.i, align 8, !tbaa !31
  br label %find_mem_pool.exit

find_mem_pool.exit:                               ; preds = %9, %11
  %13 = phi ptr [ %.pre.i, %11 ], [ %10, %9 ]
  %14 = add i64 %1, 109
  %15 = tail call ptr @mem_pool_calloc(ptr noundef %13, i64 noundef 1, i64 noundef %14) #30
  %16 = getelementptr inbounds nuw i8, ptr %15, i64 60
  store i32 1, ptr %16, align 4, !tbaa !32
  ret ptr %15
}